target datalayout = "e-m:e-p270:32:32-p271:32:32-p272:64:64-i64:64-i128:128-f80:128-n8:16:32:64-S128"
target triple = "x86_64-pc-linux-gnu"

%"class.llvm::Register" = type { i32 }
%"class.llvm::MachineInstr" = type <{ %"class.llvm::ilist_node_with_parent", ptr, ptr, ptr, [3 x i8], %"class.llvm::ArrayRecycler<llvm::MachineOperand>::Capacity", i32, %"class.llvm::PointerSumType", %"class.llvm::DebugLoc", i32, i16, [2 x i8] }>
%"class.llvm::ilist_node_with_parent" = type { %"class.llvm::ilist_node" }
%"class.llvm::ilist_node" = type { %"class.llvm::ilist_node_impl.148" }
%"class.llvm::ilist_node_impl.148" = type { %"class.llvm::ilist_node_base.149" }
%"class.llvm::ilist_node_base.149" = type { %"class.llvm::ilist_detail::node_base_prevnext.150" }
%"class.llvm::ilist_detail::node_base_prevnext.150" = type { %"class.llvm::PointerIntPair", ptr }
%"class.llvm::PointerIntPair" = type { %"struct.llvm::detail::PunnedPointer" }
%"struct.llvm::detail::PunnedPointer" = type { [8 x i8] }
%"class.llvm::ArrayRecycler<llvm::MachineOperand>::Capacity" = type { i8 }
%"class.llvm::PointerSumType" = type { %"union.llvm::PointerSumType<llvm::MachineInstr::ExtraInfoInlineKinds, llvm::PointerSumTypeMember<0, llvm::MachineMemOperand *>, llvm::PointerSumTypeMember<1, llvm::MCSymbol *>, llvm::PointerSumTypeMember<2, llvm::MCSymbol *>, llvm::PointerSumTypeMember<3, llvm::MachineInstr::ExtraInfo *>>::StorageT" }
%"union.llvm::PointerSumType<llvm::MachineInstr::ExtraInfoInlineKinds, llvm::PointerSumTypeMember<0, llvm::MachineMemOperand *>, llvm::PointerSumTypeMember<1, llvm::MCSymbol *>, llvm::PointerSumTypeMember<2, llvm::MCSymbol *>, llvm::PointerSumTypeMember<3, llvm::MachineInstr::ExtraInfo *>>::StorageT" = type { i64 }
%"class.llvm::DebugLoc" = type { %"class.llvm::TypedTrackingMDRef" }
%"class.llvm::TypedTrackingMDRef" = type { %"class.llvm::TrackingMDRef" }
%"class.llvm::TrackingMDRef" = type { ptr }
%"class.llvm::MachineOperand" = type { i32, %union.anon.152, ptr, %"union.llvm::MachineOperand::ContentsUnion" }
%union.anon.152 = type { i32 }
%"union.llvm::MachineOperand::ContentsUnion" = type { %"class.llvm::ArrayRef.153" }
%"class.llvm::ArrayRef.153" = type { ptr, i64 }
%struct.anon.155 = type { %union.anon.156, i32 }
%union.anon.156 = type { ptr }

; Function Attrs: mustprogress nounwind uwtable
define linkonce_odr hidden noundef i32 @_ZNK4llvm14MachineOperand8getIndexEv(ptr noundef nonnull align 8 dereferenceable(32) %0) #0 comdat align 2 {
  %2 = alloca ptr, align 8
  store ptr %0, ptr %2, align 8
  %3 = load ptr, ptr %2, align 8
  %4 = getelementptr inbounds nuw %"class.llvm::MachineOperand", ptr %3, i32 0, i32 3
  %5 = getelementptr inbounds nuw %struct.anon.155, ptr %4, i32 0, i32 0
  %6 = load i32, ptr %5, align 8
  ret i32 %6
}

; Function Attrs: mustprogress nounwind uwtable
define linkonce_odr hidden noundef zeroext i1 @_ZNK4llvm8RegistereqEi(ptr noundef nonnull align 4 dereferenceable(4) %0, i32 noundef %1) #0 comdat align 2 {
  %3 = alloca ptr, align 8
  %4 = alloca i32, align 4
  store ptr %0, ptr %3, align 8
  store i32 %1, ptr %4, align 4
  %5 = load ptr, ptr %3, align 8
  %6 = getelementptr inbounds nuw %"class.llvm::Register", ptr %5, i32 0, i32 0
  %7 = load i32, ptr %6, align 4
  %8 = load i32, ptr %4, align 4
  %9 = icmp eq i32 %7, %8
  ret i1 %9
}

; Function Attrs: mustprogress nounwind uwtable
define linkonce_odr hidden noundef i64 @_ZNK4llvm14MachineOperand6getImmEv(ptr noundef nonnull align 8 dereferenceable(32) %0) #0 comdat align 2 {
  %2 = alloca ptr, align 8
  store ptr %0, ptr %2, align 8
  %3 = load ptr, ptr %2, align 8
  %4 = getelementptr inbounds nuw %"class.llvm::MachineOperand", ptr %3, i32 0, i32 3
  %5 = load i64, ptr %4, align 8
  ret i64 %5
}

; Function Attrs: mustprogress nounwind uwtable
define linkonce_odr hidden noundef zeroext i1 @_ZNK4llvm14MachineOperand5isRegEv(ptr noundef nonnull align 8 dereferenceable(32) %0) #0 comdat align 2 {
  %2 = alloca ptr, align 8
  store ptr %0, ptr %2, align 8
  %3 = load ptr, ptr %2, align 8
  %4 = load i32, ptr %3, align 8
  %5 = and i32 %4, 255
  %6 = icmp eq i32 %5, 0
  ret i1 %6
}

; Function Attrs: mustprogress nounwind uwtable
define linkonce_odr hidden noundef zeroext i1 @_ZNK4llvm14MachineOperand5isImmEv(ptr noundef nonnull align 8 dereferenceable(32) %0) #0 comdat align 2 {
  %2 = alloca ptr, align 8
  store ptr %0, ptr %2, align 8
  %3 = load ptr, ptr %2, align 8
  %4 = load i32, ptr %3, align 8
  %5 = and i32 %4, 255
  %6 = icmp eq i32 %5, 1
  ret i1 %6
}

; Function Attrs: mustprogress nounwind uwtable
define linkonce_odr hidden noundef zeroext i1 @_ZNK4llvm14MachineOperand4isFIEv(ptr noundef nonnull align 8 dereferenceable(32) %0) #0 comdat align 2 {
  %2 = alloca ptr, align 8
  store ptr %0, ptr %2, align 8
  %3 = load ptr, ptr %2, align 8
  %4 = load i32, ptr %3, align 8
  %5 = and i32 %4, 255
  %6 = icmp eq i32 %5, 5
  ret i1 %6
}

; Function Attrs: mustprogress nounwind uwtable
define linkonce_odr hidden void @_ZN4llvm8RegisterC2Ej(ptr noundef nonnull align 4 dereferenceable(4) %0, i32 noundef %1) unnamed_addr #0 comdat align 2 {
  %3 = alloca ptr, align 8
  %4 = alloca i32, align 4
  store ptr %0, ptr %3, align 8
  store i32 %1, ptr %4, align 4
  %5 = load ptr, ptr %3, align 8
  %6 = getelementptr inbounds nuw %"class.llvm::Register", ptr %5, i32 0, i32 0
  %7 = load i32, ptr %4, align 4
  store i32 %7, ptr %6, align 4
  ret void
}

; Function Attrs: mustprogress nounwind uwtable
define linkonce_odr hidden i32 @_ZNK4llvm14MachineOperand6getRegEv(ptr noundef nonnull align 8 dereferenceable(32) %0) #0 comdat align 2 {
  %2 = alloca %"class.llvm::Register", align 4
  %3 = alloca ptr, align 8
  store ptr %0, ptr %3, align 8
  %4 = load ptr, ptr %3, align 8
  %5 = getelementptr inbounds nuw %"class.llvm::MachineOperand", ptr %4, i32 0, i32 1
  %6 = load i32, ptr %5, align 4
  call void @_ZN4llvm8RegisterC2Ej(ptr noundef nonnull align 4 dereferenceable(4) %2, i32 noundef %6)
  %7 = getelementptr inbounds nuw %"class.llvm::Register", ptr %2, i32 0, i32 0
  %8 = load i32, ptr %7, align 4
  ret i32 %8
}

; Function Attrs: mustprogress nounwind uwtable
define dso_local noundef zeroext i1 @_ZNK4llvm12X86InstrInfo14isFrameOperandERKNS_12MachineInstrEjRi(ptr noundef nonnull align 8 dereferenceable(416) %0, ptr noundef nonnull align 8 dereferenceable(70) %1, i32 noundef %2, ptr noundef nonnull align 4 dereferenceable(4) %3) #0 align 2 {
  %5 = alloca i1, align 1
  %6 = alloca ptr, align 8
  %7 = alloca ptr, align 8
  %8 = alloca i32, align 4
  %9 = alloca ptr, align 8
  %10 = alloca %"class.llvm::Register", align 4
  store ptr %0, ptr %6, align 8
  store ptr %1, ptr %7, align 8
  store i32 %2, ptr %8, align 4
  store ptr %3, ptr %9, align 8
  %11 = load ptr, ptr %7, align 8
  %12 = load i32, ptr %8, align 4
  %13 = add i32 %12, 0
  %14 = call noundef nonnull align 8 dereferenceable(32) ptr @_ZNK4llvm12MachineInstr10getOperandEj(ptr noundef nonnull align 8 dereferenceable(70) %11, i32 noundef %13)
  %15 = call noundef zeroext i1 @_ZNK4llvm14MachineOperand4isFIEv(ptr noundef nonnull align 8 dereferenceable(32) %14)
  br i1 %15, label %16, label %56

16:                                               ; preds = %4
  %17 = load ptr, ptr %7, align 8
  %18 = load i32, ptr %8, align 4
  %19 = add i32 %18, 1
  %20 = call noundef nonnull align 8 dereferenceable(32) ptr @_ZNK4llvm12MachineInstr10getOperandEj(ptr noundef nonnull align 8 dereferenceable(70) %17, i32 noundef %19)
  %21 = call noundef zeroext i1 @_ZNK4llvm14MachineOperand5isImmEv(ptr noundef nonnull align 8 dereferenceable(32) %20)
  br i1 %21, label %22, label %56

22:                                               ; preds = %16
  %23 = load ptr, ptr %7, align 8
  %24 = load i32, ptr %8, align 4
  %25 = add i32 %24, 2
  %26 = call noundef nonnull align 8 dereferenceable(32) ptr @_ZNK4llvm12MachineInstr10getOperandEj(ptr noundef nonnull align 8 dereferenceable(70) %23, i32 noundef %25)
  %27 = call noundef zeroext i1 @_ZNK4llvm14MachineOperand5isRegEv(ptr noundef nonnull align 8 dereferenceable(32) %26)
  br i1 %27, label %28, label %56

28:                                               ; preds = %22
  %29 = load ptr, ptr %7, align 8
  %30 = load i32, ptr %8, align 4
  %31 = add i32 %30, 3
  %32 = call noundef nonnull align 8 dereferenceable(32) ptr @_ZNK4llvm12MachineInstr10getOperandEj(ptr noundef nonnull align 8 dereferenceable(70) %29, i32 noundef %31)
  %33 = call noundef zeroext i1 @_ZNK4llvm14MachineOperand5isImmEv(ptr noundef nonnull align 8 dereferenceable(32) %32)
  br i1 %33, label %34, label %56

34:                                               ; preds = %28
  %35 = load ptr, ptr %7, align 8
  %36 = load i32, ptr %8, align 4
  %37 = add i32 %36, 1
  %38 = call noundef nonnull align 8 dereferenceable(32) ptr @_ZNK4llvm12MachineInstr10getOperandEj(ptr noundef nonnull align 8 dereferenceable(70) %35, i32 noundef %37)
  %39 = call noundef i64 @_ZNK4llvm14MachineOperand6getImmEv(ptr noundef nonnull align 8 dereferenceable(32) %38)
  %40 = icmp eq i64 %39, 1
  br i1 %40, label %41, label %56

41:                                               ; preds = %34
  %42 = load ptr, ptr %7, align 8
  %43 = load i32, ptr %8, align 4
  %44 = add i32 %43, 2
  %45 = call noundef nonnull align 8 dereferenceable(32) ptr @_ZNK4llvm12MachineInstr10getOperandEj(ptr noundef nonnull align 8 dereferenceable(70) %42, i32 noundef %44)
  %46 = call i32 @_ZNK4llvm14MachineOperand6getRegEv(ptr noundef nonnull align 8 dereferenceable(32) %45)
  %47 = getelementptr inbounds nuw %"class.llvm::Register", ptr %10, i32 0, i32 0
  store i32 %46, ptr %47, align 4
  %48 = call noundef zeroext i1 @_ZNK4llvm8RegistereqEi(ptr noundef nonnull align 4 dereferenceable(4) %10, i32 noundef 0)
  br i1 %48, label %49, label %56

49:                                               ; preds = %41
  %50 = load ptr, ptr %7, align 8
  %51 = load i32, ptr %8, align 4
  %52 = add i32 %51, 3
  %53 = call noundef nonnull align 8 dereferenceable(32) ptr @_ZNK4llvm12MachineInstr10getOperandEj(ptr noundef nonnull align 8 dereferenceable(70) %50, i32 noundef %52)
  %54 = call noundef i64 @_ZNK4llvm14MachineOperand6getImmEv(ptr noundef nonnull align 8 dereferenceable(32) %53)
  %55 = icmp eq i64 %54, 0
  br label %56

56:                                               ; preds = %49, %41, %34, %28, %22, %16, %4
  %57 = phi i1 [ false, %41 ], [ false, %34 ], [ false, %28 ], [ false, %22 ], [ false, %16 ], [ false, %4 ], [ %55, %49 ]
  br i1 %57, label %58, label %65

58:                                               ; preds = %56
  %59 = load ptr, ptr %7, align 8
  %60 = load i32, ptr %8, align 4
  %61 = add i32 %60, 0
  %62 = call noundef nonnull align 8 dereferenceable(32) ptr @_ZNK4llvm12MachineInstr10getOperandEj(ptr noundef nonnull align 8 dereferenceable(70) %59, i32 noundef %61)
  %63 = call noundef i32 @_ZNK4llvm14MachineOperand8getIndexEv(ptr noundef nonnull align 8 dereferenceable(32) %62)
  %64 = load ptr, ptr %9, align 8
  store i32 %63, ptr %64, align 4
  store i1 true, ptr %5, align 1
  br label %66

65:                                               ; preds = %56
  store i1 false, ptr %5, align 1
  br label %66

66:                                               ; preds = %65, %58
  %67 = load i1, ptr %5, align 1
  ret i1 %67
}

; Function Attrs: mustprogress nounwind uwtable
define linkonce_odr hidden noundef i32 @_ZNK4llvm14MachineOperand9getSubRegEv(ptr noundef nonnull align 8 dereferenceable(32) %0) #0 comdat align 2 {
  %2 = alloca ptr, align 8
  store ptr %0, ptr %2, align 8
  %3 = load ptr, ptr %2, align 8
  %4 = load i32, ptr %3, align 8
  %5 = lshr i32 %4, 8
  %6 = and i32 %5, 4095
  ret i32 %6
}

; Function Attrs: mustprogress nounwind uwtable
define linkonce_odr hidden noundef nonnull align 8 dereferenceable(32) ptr @_ZNK4llvm12MachineInstr10getOperandEj(ptr noundef nonnull align 8 dereferenceable(70) %0, i32 noundef %1) #0 comdat align 2 {
  %3 = alloca ptr, align 8
  %4 = alloca i32, align 4
  store ptr %0, ptr %3, align 8
  store i32 %1, ptr %4, align 4
  %5 = load ptr, ptr %3, align 8
  %6 = getelementptr inbounds nuw %"class.llvm::MachineInstr", ptr %5, i32 0, i32 3
  %7 = load ptr, ptr %6, align 8
  %8 = load i32, ptr %4, align 4
  %9 = zext i32 %8 to i64
  %10 = getelementptr inbounds %"class.llvm::MachineOperand", ptr %7, i64 %9
  ret ptr %10
}

; Function Attrs: mustprogress nounwind uwtable
define linkonce_odr hidden noundef i32 @_ZNK4llvm12MachineInstr9getOpcodeEv(ptr noundef nonnull align 8 dereferenceable(70) %0) #0 comdat align 2 {
  %2 = alloca ptr, align 8
  store ptr %0, ptr %2, align 8
  %3 = load ptr, ptr %2, align 8
  %4 = getelementptr inbounds nuw %"class.llvm::MachineInstr", ptr %3, i32 0, i32 10
  %5 = load i16, ptr %4, align 4
  %6 = zext i16 %5 to i32
  ret i32 %6
}

; Function Attrs: mustprogress nounwind uwtable
define dso_local i32 @_ZNK4llvm12X86InstrInfo19isLoadFromStackSlotERKNS_12MachineInstrERiRj(ptr noundef nonnull align 8 dereferenceable(416) %0, ptr noundef nonnull align 8 dereferenceable(70) %1, ptr noundef nonnull align 4 dereferenceable(4) %2, ptr noundef nonnull align 4 dereferenceable(4) %3) unnamed_addr #0 align 2 {
  %5 = alloca %"class.llvm::Register", align 4
  %6 = alloca ptr, align 8
  %7 = alloca ptr, align 8
  %8 = alloca ptr, align 8
  %9 = alloca ptr, align 8
  store ptr %0, ptr %6, align 8
  store ptr %1, ptr %7, align 8
  store ptr %2, ptr %8, align 8
  store ptr %3, ptr %9, align 8
  %10 = load ptr, ptr %6, align 8
  %11 = load ptr, ptr %7, align 8
  %12 = call noundef i32 @_ZNK4llvm12MachineInstr9getOpcodeEv(ptr noundef nonnull align 8 dereferenceable(70) %11)
  %13 = load ptr, ptr %9, align 8
  %14 = call noundef zeroext i1 @_ZL17isFrameLoadOpcodeiRj(i32 noundef %12, ptr noundef nonnull align 4 dereferenceable(4) %13)
  br i1 %14, label %15, label %30

15:                                               ; preds = %4
  %16 = load ptr, ptr %7, align 8
  %17 = call noundef nonnull align 8 dereferenceable(32) ptr @_ZNK4llvm12MachineInstr10getOperandEj(ptr noundef nonnull align 8 dereferenceable(70) %16, i32 noundef 0)
  %18 = call noundef i32 @_ZNK4llvm14MachineOperand9getSubRegEv(ptr noundef nonnull align 8 dereferenceable(32) %17)
  %19 = icmp eq i32 %18, 0
  br i1 %19, label %20, label %29

20:                                               ; preds = %15
  %21 = load ptr, ptr %7, align 8
  %22 = load ptr, ptr %8, align 8
  %23 = call noundef zeroext i1 @_ZNK4llvm12X86InstrInfo14isFrameOperandERKNS_12MachineInstrEjRi(ptr noundef nonnull align 8 dereferenceable(416) %10, ptr noundef nonnull align 8 dereferenceable(70) %21, i32 noundef 1, ptr noundef nonnull align 4 dereferenceable(4) %22)
  br i1 %23, label %24, label %29

24:                                               ; preds = %20
  %25 = load ptr, ptr %7, align 8
  %26 = call noundef nonnull align 8 dereferenceable(32) ptr @_ZNK4llvm12MachineInstr10getOperandEj(ptr noundef nonnull align 8 dereferenceable(70) %25, i32 noundef 0)
  %27 = call i32 @_ZNK4llvm14MachineOperand6getRegEv(ptr noundef nonnull align 8 dereferenceable(32) %26)
  %28 = getelementptr inbounds nuw %"class.llvm::Register", ptr %5, i32 0, i32 0
  store i32 %27, ptr %28, align 4
  br label %31

29:                                               ; preds = %20, %15
  br label %30

30:                                               ; preds = %29, %4
  call void @_ZN4llvm8RegisterC2Ej(ptr noundef nonnull align 4 dereferenceable(4) %5, i32 noundef 0)
  br label %31

31:                                               ; preds = %30, %24
  %32 = getelementptr inbounds nuw %"class.llvm::Register", ptr %5, i32 0, i32 0
  %33 = load i32, ptr %32, align 4
  ret i32 %33
}

; Function Attrs: mustprogress nounwind uwtable
define dso_local i32 @_ZNK4llvm12X86InstrInfo19isLoadFromStackSlotERKNS_12MachineInstrERi(ptr noundef nonnull align 8 dereferenceable(416) %0, ptr noundef nonnull align 8 dereferenceable(70) %1, ptr noundef nonnull align 4 dereferenceable(4) %2) unnamed_addr #0 align 2 {
  %4 = alloca %"class.llvm::Register", align 4
  %5 = alloca ptr, align 8
  %6 = alloca ptr, align 8
  %7 = alloca ptr, align 8
  %8 = alloca i32, align 4
  store ptr %0, ptr %5, align 8
  store ptr %1, ptr %6, align 8
  store ptr %2, ptr %7, align 8
  %9 = load ptr, ptr %5, align 8
  %10 = load ptr, ptr %6, align 8
  %11 = load ptr, ptr %7, align 8
  %12 = call i32 @_ZNK4llvm12X86InstrInfo19isLoadFromStackSlotERKNS_12MachineInstrERiRj(ptr noundef nonnull align 8 dereferenceable(416) %9, ptr noundef nonnull align 8 dereferenceable(70) %10, ptr noundef nonnull align 4 dereferenceable(4) %11, ptr noundef nonnull align 4 dereferenceable(4) %8)
  %13 = getelementptr inbounds nuw %"class.llvm::Register", ptr %4, i32 0, i32 0
  store i32 %12, ptr %13, align 4
  %14 = getelementptr inbounds nuw %"class.llvm::Register", ptr %4, i32 0, i32 0
  %15 = load i32, ptr %14, align 4
  ret i32 %15
}